target datalayout = "e-m:e-p270:32:32-p271:32:32-p272:64:64-i64:64-i128:128-f80:128-n8:16:32:64-S128"
target triple = "x86_64-pc-linux-gnu"

%struct.HashState = type { %struct.PlanState, ptr, ptr, ptr, i32, ptr, ptr, ptr }
%struct.PlanState = type { i32, ptr, ptr, ptr, ptr, ptr, ptr, ptr, ptr, ptr, ptr, ptr, ptr, ptr, ptr, ptr, ptr, ptr, i8, ptr, ptr, ptr, ptr, ptr, i8, i8, i8, i8, i8, i8, i8, i8 }
%struct.ParallelContext = type { %struct.dlist_node, i32, i32, i32, i32, ptr, ptr, ptr, %struct.shm_toc_estimator, ptr, ptr, ptr, ptr, i32, ptr }
%struct.dlist_node = type { ptr, ptr }
%struct.shm_toc_estimator = type { i64, i64 }

; Function Attrs: nounwind uwtable
define dso_local void @ExecHashEstimate(ptr noundef %0, ptr noundef %1) #0 {
  %3 = alloca ptr, align 8
  %4 = alloca ptr, align 8
  %5 = alloca i64, align 8
  %6 = alloca i32, align 4
  store ptr %0, ptr %3, align 8
  store ptr %1, ptr %4, align 8
  call void @llvm.lifetime.start.p0(i64 8, ptr %5) #9
  %7 = load ptr, ptr %3, align 8
  %8 = getelementptr inbounds nuw %struct.HashState, ptr %7, i32 0, i32 0
  %9 = getelementptr inbounds nuw %struct.PlanState, ptr %8, i32 0, i32 5
  %10 = load ptr, ptr %9, align 8
  %11 = icmp ne ptr %10, null
  br i1 %11, label %12, label %17

12:                                               ; preds = %2
  %13 = load ptr, ptr %4, align 8
  %14 = getelementptr inbounds nuw %struct.ParallelContext, ptr %13, i32 0, i32 2
  %15 = load i32, ptr %14, align 4
  %16 = icmp eq i32 %15, 0
  br i1 %16, label %17, label %18

17:                                               ; preds = %12, %2
  store i32 1, ptr %6, align 4
  br label %45

18:                                               ; preds = %12
  %19 = load ptr, ptr %4, align 8
  %20 = getelementptr inbounds nuw %struct.ParallelContext, ptr %19, i32 0, i32 2
  %21 = load i32, ptr %20, align 4
  %22 = sext i32 %21 to i64
  %23 = call i64 @mul_size(i64 noundef %22, i64 noundef 24)
  store i64 %23, ptr %5, align 8
  %24 = load i64, ptr %5, align 8
  %25 = call i64 @add_size(i64 noundef %24, i64 noundef 8)
  store i64 %25, ptr %5, align 8
  %26 = load ptr, ptr %4, align 8
  %27 = getelementptr inbounds nuw %struct.ParallelContext, ptr %26, i32 0, i32 8
  %28 = getelementptr inbounds nuw %struct.shm_toc_estimator, ptr %27, i32 0, i32 0
  %29 = load i64, ptr %28, align 8
  %30 = load i64, ptr %5, align 8
  %31 = add i64 %30, 31
  %32 = and i64 %31, -32
  %33 = call i64 @add_size(i64 noundef %29, i64 noundef %32)
  %34 = load ptr, ptr %4, align 8
  %35 = getelementptr inbounds nuw %struct.ParallelContext, ptr %34, i32 0, i32 8
  %36 = getelementptr inbounds nuw %struct.shm_toc_estimator, ptr %35, i32 0, i32 0
  store i64 %33, ptr %36, align 8
  %37 = load ptr, ptr %4, align 8
  %38 = getelementptr inbounds nuw %struct.ParallelContext, ptr %37, i32 0, i32 8
  %39 = getelementptr inbounds nuw %struct.shm_toc_estimator, ptr %38, i32 0, i32 1
  %40 = load i64, ptr %39, align 8
  %41 = call i64 @add_size(i64 noundef %40, i64 noundef 1)
  %42 = load ptr, ptr %4, align 8
  %43 = getelementptr inbounds nuw %struct.ParallelContext, ptr %42, i32 0, i32 8
  %44 = getelementptr inbounds nuw %struct.shm_toc_estimator, ptr %43, i32 0, i32 1
  store i64 %41, ptr %44, align 8
  store i32 0, ptr %6, align 4
  br label %45

45:                                               ; preds = %18, %17
  call void @llvm.lifetime.end.p0(i64 8, ptr %5) #9
  %46 = load i32, ptr %6, align 4
  switch i32 %46, label %48 [
    i32 0, label %47
    i32 1, label %47
  ]

47:                                               ; preds = %45, %45
  ret void

48:                                               ; preds = %45
  unreachable
}