; Function Attrs: nounwind uwtable
define dso_local void @ExecHashEstimate(ptr noundef readonly captures(none) %0, ptr noundef captures(none) %1) local_unnamed_addr #0 {
  %3 = getelementptr inbounds nuw i8, ptr %0, i64 40
  %4 = load ptr, ptr %3, align 8
  %.not = icmp eq ptr %4, null
  br i1 %.not, label %21, label %5

5:                                                ; preds = %2
  %6 = getelementptr inbounds nuw i8, ptr %1, i64 20
  %7 = load i32, ptr %6, align 4
  %8 = icmp eq i32 %7, 0
  br i1 %8, label %21, label %9

9:                                                ; preds = %5
  %10 = sext i32 %7 to i64
  %11 = tail call i64 @mul_size(i64 noundef %10, i64 noundef 24) #16
  %12 = tail call i64 @add_size(i64 noundef %11, i64 noundef 8) #16
  %13 = getelementptr inbounds nuw i8, ptr %1, i64 56
  %14 = load i64, ptr %13, align 8
  %15 = add i64 %12, 31
  %16 = and i64 %15, -32
  %17 = tail call i64 @add_size(i64 noundef %14, i64 noundef %16) #16
  store i64 %17, ptr %13, align 8
  %18 = getelementptr inbounds nuw i8, ptr %1, i64 64
  %19 = load i64, ptr %18, align 8
  %20 = tail call i64 @add_size(i64 noundef %19, i64 noundef 1) #16
  store i64 %20, ptr %18, align 8
  br label %21

21:                                               ; preds = %2, %5, %9
  ret void
}